; Function Attrs: mustprogress uwtable
define void @_ZN7openvdb5v11_02io14StreamMetadataC2Ev(ptr nocapture noundef nonnull writeonly align 8 dereferenceable(8) %this) unnamed_addr #6 align 2 personality ptr @__gxx_personality_v0 {
entry:
  %call = tail call noalias noundef nonnull dereferenceable(168) ptr @_Znwm(i64 noundef 168) #35
  invoke void @_ZN7openvdb5v11_02io14StreamMetadata4ImplC2Ev(ptr noundef nonnull align 8 dereferenceable(164) %call)
          to label %invoke.cont unwind label %lpad

invoke.cont:                                      ; preds = %entry
  store ptr %call, ptr %this, align 8
  ret void

lpad:                                             ; preds = %entry
  %0 = landingpad { ptr, i32 }
          cleanup
  tail call void @_ZdlPv(ptr noundef nonnull %call) #36
  resume { ptr, i32 } %0
}